target datalayout = "e-m:e-p270:32:32-p271:32:32-p272:64:64-i64:64-i128:128-f80:128-n8:16:32:64-S128"
target triple = "x86_64-pc-linux-gnu"

%"struct.cvc5::internal::theory::arith::linear::PrimitiveVec" = type { i32, ptr, ptr }
%"class.cvc5::internal::theory::arith::linear::CutInfo" = type { ptr, i32, i32, i32, i32, double, %"struct.cvc5::internal::theory::arith::linear::PrimitiveVec", i32, i32, i32, %"class.std::unique_ptr", %"class.std::unique_ptr.21" }
%"class.std::unique_ptr" = type { %"struct.std::__uniq_ptr_data" }
%"struct.std::__uniq_ptr_data" = type { %"class.std::__uniq_ptr_impl" }
%"class.std::__uniq_ptr_impl" = type { %"class.std::tuple" }
%"class.std::tuple" = type { %"struct.std::_Tuple_impl" }
%"struct.std::_Tuple_impl" = type { %"struct.std::_Head_base.20" }
%"struct.std::_Head_base.20" = type { ptr }
%"class.std::unique_ptr.21" = type { %"struct.std::__uniq_ptr_data.22" }
%"struct.std::__uniq_ptr_data.22" = type { %"class.std::__uniq_ptr_impl.23" }
%"class.std::__uniq_ptr_impl.23" = type { %"class.std::tuple.24" }
%"class.std::tuple.24" = type { %"struct.std::_Tuple_impl.25" }
%"struct.std::_Tuple_impl.25" = type { %"struct.std::_Head_base.28" }
%"struct.std::_Head_base.28" = type { ptr }

@_ZTVN4cvc58internal6theory5arith6linear7CutInfoE = hidden unnamed_addr constant { [4 x ptr] } { [4 x ptr] [ptr null, ptr @_ZTIN4cvc58internal6theory5arith6linear7CutInfoE, ptr @_ZN4cvc58internal6theory5arith6linear7CutInfoD1Ev, ptr @_ZN4cvc58internal6theory5arith6linear7CutInfoD0Ev] }, align 8
@_ZN4cvc58internal6theory5arith6linear12PrimitiveVecC1Ev = hidden unnamed_addr alias void (ptr), ptr @_ZN4cvc58internal6theory5arith6linear12PrimitiveVecC2Ev

; Function Attrs: mustprogress nounwind uwtable
define linkonce_odr hidden void @_ZNSt10_Head_baseILm1ESt14default_deleteISt6vectorIPKN4cvc58internal6theory5arith6linear10ConstraintESaIS9_EEELb1EEC2Ev(ptr noundef nonnull align 1 dereferenceable(1) %0) unnamed_addr #4 comdat align 2 {
  %2 = alloca ptr, align 8
  store ptr %0, ptr %2, align 8, !tbaa !305
  ret void
}

; Function Attrs: mustprogress nounwind uwtable
define linkonce_odr hidden void @_ZNSt10_Head_baseILm1ESt14default_deleteIN4cvc58internal6theory5arith6linear11DenseVectorEELb1EEC2Ev(ptr noundef nonnull align 1 dereferenceable(1) %0) unnamed_addr #4 comdat align 2 {
  %2 = alloca ptr, align 8
  store ptr %0, ptr %2, align 8, !tbaa !290
  ret void
}

; Function Attrs: mustprogress nounwind uwtable
define linkonce_odr hidden void @_ZNSt10_Head_baseILm0EPSt6vectorIPKN4cvc58internal6theory5arith6linear10ConstraintESaIS8_EELb0EEC2Ev(ptr noundef nonnull align 8 dereferenceable(8) %0) unnamed_addr #4 comdat align 2 {
  %2 = alloca ptr, align 8
  store ptr %0, ptr %2, align 8, !tbaa !302
  %3 = load ptr, ptr %2, align 8
  %4 = getelementptr inbounds nuw %"struct.std::_Head_base.28", ptr %3, i32 0, i32 0
  store ptr null, ptr %4, align 8, !tbaa !304
  ret void
}

; Function Attrs: mustprogress uwtable
define linkonce_odr hidden void @_ZNSt11_Tuple_implILm1EJSt14default_deleteISt6vectorIPKN4cvc58internal6theory5arith6linear10ConstraintESaIS9_EEEEEC2Ev(ptr noundef nonnull align 1 dereferenceable(1) %0) unnamed_addr #5 comdat align 2 {
  %2 = alloca ptr, align 8
  store ptr %0, ptr %2, align 8, !tbaa !300
  %3 = load ptr, ptr %2, align 8
  call void @_ZNSt10_Head_baseILm1ESt14default_deleteISt6vectorIPKN4cvc58internal6theory5arith6linear10ConstraintESaIS9_EEELb1EEC2Ev(ptr noundef nonnull align 1 dereferenceable(1) %3)
  ret void
}

; Function Attrs: mustprogress nounwind uwtable
define linkonce_odr hidden void @_ZNSt10_Head_baseILm0EPN4cvc58internal6theory5arith6linear11DenseVectorELb0EEC2Ev(ptr noundef nonnull align 8 dereferenceable(8) %0) unnamed_addr #4 comdat align 2 {
  %2 = alloca ptr, align 8
  store ptr %0, ptr %2, align 8, !tbaa !287
  %3 = load ptr, ptr %2, align 8
  %4 = getelementptr inbounds nuw %"struct.std::_Head_base.20", ptr %3, i32 0, i32 0
  store ptr null, ptr %4, align 8, !tbaa !289
  ret void
}

; Function Attrs: mustprogress uwtable
define linkonce_odr hidden void @_ZNSt11_Tuple_implILm1EJSt14default_deleteIN4cvc58internal6theory5arith6linear11DenseVectorEEEEC2Ev(ptr noundef nonnull align 1 dereferenceable(1) %0) unnamed_addr #5 comdat align 2 {
  %2 = alloca ptr, align 8
  store ptr %0, ptr %2, align 8, !tbaa !285
  %3 = load ptr, ptr %2, align 8
  call void @_ZNSt10_Head_baseILm1ESt14default_deleteIN4cvc58internal6theory5arith6linear11DenseVectorEELb1EEC2Ev(ptr noundef nonnull align 1 dereferenceable(1) %3)
  ret void
}

; Function Attrs: mustprogress uwtable
define linkonce_odr hidden void @_ZNSt11_Tuple_implILm0EJPSt6vectorIPKN4cvc58internal6theory5arith6linear10ConstraintESaIS8_EESt14default_deleteISA_EEEC2Ev(ptr noundef nonnull align 8 dereferenceable(8) %0) unnamed_addr #5 comdat align 2 {
  %2 = alloca ptr, align 8
  store ptr %0, ptr %2, align 8, !tbaa !298
  %3 = load ptr, ptr %2, align 8
  call void @_ZNSt11_Tuple_implILm1EJSt14default_deleteISt6vectorIPKN4cvc58internal6theory5arith6linear10ConstraintESaIS9_EEEEEC2Ev(ptr noundef nonnull align 1 dereferenceable(1) %3)
  call void @_ZNSt10_Head_baseILm0EPSt6vectorIPKN4cvc58internal6theory5arith6linear10ConstraintESaIS8_EELb0EEC2Ev(ptr noundef nonnull align 8 dereferenceable(8) %3)
  ret void
}

; Function Attrs: noinline noreturn nounwind uwtable
define linkonce_odr hidden void @__clang_call_terminate(ptr noundef %0) #7 comdat {
  %2 = call ptr @__cxa_begin_catch(ptr %0) #3
  call void @_ZSt9terminatev() #20
  unreachable
}

; Function Attrs: mustprogress uwtable
define linkonce_odr hidden void @_ZNSt11_Tuple_implILm0EJPN4cvc58internal6theory5arith6linear11DenseVectorESt14default_deleteIS5_EEEC2Ev(ptr noundef nonnull align 8 dereferenceable(8) %0) unnamed_addr #5 comdat align 2 {
  %2 = alloca ptr, align 8
  store ptr %0, ptr %2, align 8, !tbaa !283
  %3 = load ptr, ptr %2, align 8
  call void @_ZNSt11_Tuple_implILm1EJSt14default_deleteIN4cvc58internal6theory5arith6linear11DenseVectorEEEEC2Ev(ptr noundef nonnull align 1 dereferenceable(1) %3)
  call void @_ZNSt10_Head_baseILm0EPN4cvc58internal6theory5arith6linear11DenseVectorELb0EEC2Ev(ptr noundef nonnull align 8 dereferenceable(8) %3)
  ret void
}

; Function Attrs: mustprogress nounwind uwtable
define linkonce_odr hidden void @_ZNSt5tupleIJPSt6vectorIPKN4cvc58internal6theory5arith6linear10ConstraintESaIS8_EESt14default_deleteISA_EEEC2ILb1ETnNSt9enable_ifIXclsr17_TupleConstraintsIXT_ESB_SD_EE37__is_implicitly_default_constructibleEEbE4typeELb1EEEv(ptr noundef nonnull align 8 dereferenceable(8) %0) unnamed_addr #4 comdat align 2 personality ptr @__gxx_personality_v0 {
  %2 = alloca ptr, align 8
  store ptr %0, ptr %2, align 8, !tbaa !296
  %3 = load ptr, ptr %2, align 8
  invoke void @_ZNSt11_Tuple_implILm0EJPSt6vectorIPKN4cvc58internal6theory5arith6linear10ConstraintESaIS8_EESt14default_deleteISA_EEEC2Ev(ptr noundef nonnull align 8 dereferenceable(8) %3)
          to label %4 unwind label %5

4:                                                ; preds = %1
  ret void

5:                                                ; preds = %1
  %6 = landingpad { ptr, i32 }
          catch ptr null
  %7 = extractvalue { ptr, i32 } %6, 0
  call void @__clang_call_terminate(ptr %7) #20
  unreachable
}

; Function Attrs: mustprogress nounwind uwtable
define linkonce_odr hidden void @_ZNSt5tupleIJPN4cvc58internal6theory5arith6linear11DenseVectorESt14default_deleteIS5_EEEC2ILb1ETnNSt9enable_ifIXclsr17_TupleConstraintsIXT_ES6_S8_EE37__is_implicitly_default_constructibleEEbE4typeELb1EEEv(ptr noundef nonnull align 8 dereferenceable(8) %0) unnamed_addr #4 comdat align 2 personality ptr @__gxx_personality_v0 {
  %2 = alloca ptr, align 8
  store ptr %0, ptr %2, align 8, !tbaa !281
  %3 = load ptr, ptr %2, align 8
  invoke void @_ZNSt11_Tuple_implILm0EJPN4cvc58internal6theory5arith6linear11DenseVectorESt14default_deleteIS5_EEEC2Ev(ptr noundef nonnull align 8 dereferenceable(8) %3)
          to label %4 unwind label %5

4:                                                ; preds = %1
  ret void

5:                                                ; preds = %1
  %6 = landingpad { ptr, i32 }
          catch ptr null
  %7 = extractvalue { ptr, i32 } %6, 0
  call void @__clang_call_terminate(ptr %7) #20
  unreachable
}

; Function Attrs: mustprogress nounwind uwtable
define linkonce_odr hidden void @_ZNSt15__uniq_ptr_implISt6vectorIPKN4cvc58internal6theory5arith6linear10ConstraintESaIS8_EESt14default_deleteISA_EEC2Ev(ptr noundef nonnull align 8 dereferenceable(8) %0) unnamed_addr #4 comdat align 2 {
  %2 = alloca ptr, align 8
  store ptr %0, ptr %2, align 8, !tbaa !294
  %3 = load ptr, ptr %2, align 8
  %4 = getelementptr inbounds nuw %"class.std::__uniq_ptr_impl.23", ptr %3, i32 0, i32 0
  call void @_ZNSt5tupleIJPSt6vectorIPKN4cvc58internal6theory5arith6linear10ConstraintESaIS8_EESt14default_deleteISA_EEEC2ILb1ETnNSt9enable_ifIXclsr17_TupleConstraintsIXT_ESB_SD_EE37__is_implicitly_default_constructibleEEbE4typeELb1EEEv(ptr noundef nonnull align 8 dereferenceable(8) %4) #3
  ret void
}

; Function Attrs: mustprogress nounwind uwtable
define linkonce_odr hidden void @_ZNSt15__uniq_ptr_implIN4cvc58internal6theory5arith6linear11DenseVectorESt14default_deleteIS5_EEC2Ev(ptr noundef nonnull align 8 dereferenceable(8) %0) unnamed_addr #4 comdat align 2 {
  %2 = alloca ptr, align 8
  store ptr %0, ptr %2, align 8, !tbaa !279
  %3 = load ptr, ptr %2, align 8
  %4 = getelementptr inbounds nuw %"class.std::__uniq_ptr_impl", ptr %3, i32 0, i32 0
  call void @_ZNSt5tupleIJPN4cvc58internal6theory5arith6linear11DenseVectorESt14default_deleteIS5_EEEC2ILb1ETnNSt9enable_ifIXclsr17_TupleConstraintsIXT_ES6_S8_EE37__is_implicitly_default_constructibleEEbE4typeELb1EEEv(ptr noundef nonnull align 8 dereferenceable(8) %4) #3
  ret void
}

; Function Attrs: inlinehint mustprogress nounwind uwtable
define linkonce_odr hidden void @_ZNSt15__uniq_ptr_dataISt6vectorIPKN4cvc58internal6theory5arith6linear10ConstraintESaIS8_EESt14default_deleteISA_ELb1ELb1EEC2Ev(ptr noundef nonnull align 8 dereferenceable(8) %0) unnamed_addr #12 comdat align 2 {
  %2 = alloca ptr, align 8
  store ptr %0, ptr %2, align 8, !tbaa !292
  %3 = load ptr, ptr %2, align 8
  call void @_ZNSt15__uniq_ptr_implISt6vectorIPKN4cvc58internal6theory5arith6linear10ConstraintESaIS8_EESt14default_deleteISA_EEC2Ev(ptr noundef nonnull align 8 dereferenceable(8) %3) #3
  ret void
}

; Function Attrs: inlinehint mustprogress nounwind uwtable
define linkonce_odr hidden void @_ZNSt15__uniq_ptr_dataIN4cvc58internal6theory5arith6linear11DenseVectorESt14default_deleteIS5_ELb1ELb1EEC2Ev(ptr noundef nonnull align 8 dereferenceable(8) %0) unnamed_addr #12 comdat align 2 {
  %2 = alloca ptr, align 8
  store ptr %0, ptr %2, align 8, !tbaa !277
  %3 = load ptr, ptr %2, align 8
  call void @_ZNSt15__uniq_ptr_implIN4cvc58internal6theory5arith6linear11DenseVectorESt14default_deleteIS5_EEC2Ev(ptr noundef nonnull align 8 dereferenceable(8) %3) #3
  ret void
}

; Function Attrs: mustprogress nounwind uwtable
define linkonce_odr hidden void @_ZNSt10unique_ptrISt6vectorIPKN4cvc58internal6theory5arith6linear10ConstraintESaIS8_EESt14default_deleteISA_EEC2ISC_vEEDn(ptr noundef nonnull align 8 dereferenceable(8) %0, ptr %1) unnamed_addr #4 comdat align 2 {
  %3 = alloca ptr, align 8
  %4 = alloca ptr, align 8
  store ptr %0, ptr %3, align 8, !tbaa !95
  store ptr %1, ptr %4, align 8, !tbaa !93
  %5 = load ptr, ptr %3, align 8
  %6 = getelementptr inbounds nuw %"class.std::unique_ptr.21", ptr %5, i32 0, i32 0
  call void @llvm.memset.p0.i64(ptr align 8 %6, i8 0, i64 8, i1 false)
  call void @_ZNSt15__uniq_ptr_dataISt6vectorIPKN4cvc58internal6theory5arith6linear10ConstraintESaIS8_EESt14default_deleteISA_ELb1ELb1EEC2Ev(ptr noundef nonnull align 8 dereferenceable(8) %6) #3
  ret void
}

; Function Attrs: mustprogress nounwind uwtable
define linkonce_odr hidden void @_ZNSt10unique_ptrIN4cvc58internal6theory5arith6linear11DenseVectorESt14default_deleteIS5_EEC2IS7_vEEDn(ptr noundef nonnull align 8 dereferenceable(8) %0, ptr %1) unnamed_addr #4 comdat align 2 {
  %3 = alloca ptr, align 8
  %4 = alloca ptr, align 8
  store ptr %0, ptr %3, align 8, !tbaa !91
  store ptr %1, ptr %4, align 8, !tbaa !93
  %5 = load ptr, ptr %3, align 8
  %6 = getelementptr inbounds nuw %"class.std::unique_ptr", ptr %5, i32 0, i32 0
  call void @llvm.memset.p0.i64(ptr align 8 %6, i8 0, i64 8, i1 false)
  call void @_ZNSt15__uniq_ptr_dataIN4cvc58internal6theory5arith6linear11DenseVectorESt14default_deleteIS5_ELb1ELb1EEC2Ev(ptr noundef nonnull align 8 dereferenceable(8) %6) #3
  ret void
}

; Function Attrs: mustprogress uwtable
define hidden void @_ZN4cvc58internal6theory5arith6linear12PrimitiveVec5setupEi(ptr noundef nonnull align 8 dereferenceable(24) %0, i32 noundef %1) #5 align 2 {
  %3 = alloca ptr, align 8
  %4 = alloca i32, align 4
  store ptr %0, ptr %3, align 8, !tbaa !44
  store i32 %1, ptr %4, align 4, !tbaa !12
  %5 = load ptr, ptr %3, align 8
  %6 = load i32, ptr %4, align 4, !tbaa !12
  %7 = getelementptr inbounds nuw %"struct.cvc5::internal::theory::arith::linear::PrimitiveVec", ptr %5, i32 0, i32 0
  store i32 %6, ptr %7, align 8, !tbaa !46
  %8 = getelementptr inbounds nuw %"struct.cvc5::internal::theory::arith::linear::PrimitiveVec", ptr %5, i32 0, i32 0
  %9 = load i32, ptr %8, align 8, !tbaa !46
  %10 = add nsw i32 1, %9
  %11 = sext i32 %10 to i64
  %12 = call { i64, i1 } @llvm.umul.with.overflow.i64(i64 %11, i64 4)
  %13 = extractvalue { i64, i1 } %12, 1
  %14 = extractvalue { i64, i1 } %12, 0
  %15 = select i1 %13, i64 -1, i64 %14
  %16 = call noalias noundef nonnull ptr @_Znam(i64 noundef %15) #22
  %17 = getelementptr inbounds nuw %"struct.cvc5::internal::theory::arith::linear::PrimitiveVec", ptr %5, i32 0, i32 1
  store ptr %16, ptr %17, align 8, !tbaa !49
  %18 = getelementptr inbounds nuw %"struct.cvc5::internal::theory::arith::linear::PrimitiveVec", ptr %5, i32 0, i32 0
  %19 = load i32, ptr %18, align 8, !tbaa !46
  %20 = add nsw i32 1, %19
  %21 = sext i32 %20 to i64
  %22 = call { i64, i1 } @llvm.umul.with.overflow.i64(i64 %21, i64 8)
  %23 = extractvalue { i64, i1 } %22, 1
  %24 = extractvalue { i64, i1 } %22, 0
  %25 = select i1 %23, i64 -1, i64 %24
  %26 = call noalias noundef nonnull ptr @_Znam(i64 noundef %25) #22
  %27 = getelementptr inbounds nuw %"struct.cvc5::internal::theory::arith::linear::PrimitiveVec", ptr %5, i32 0, i32 2
  store ptr %26, ptr %27, align 8, !tbaa !50
  ret void
}

; Function Attrs: mustprogress uwtable
define hidden void @_ZN4cvc58internal6theory5arith6linear7CutInfoC2ENS3_12CutInfoKlassEii(ptr noundef nonnull align 8 dereferenceable(88) %0, i32 noundef %1, i32 noundef %2, i32 noundef %3) unnamed_addr #5 align 2 {
  %5 = alloca ptr, align 8
  %6 = alloca i32, align 4
  %7 = alloca i32, align 4
  %8 = alloca i32, align 4
  store ptr %0, ptr %5, align 8, !tbaa !63
  store i32 %1, ptr %6, align 4, !tbaa !65
  store i32 %2, ptr %7, align 4, !tbaa !12
  store i32 %3, ptr %8, align 4, !tbaa !12
  %9 = load ptr, ptr %5, align 8
  store ptr getelementptr inbounds inrange(-16, 16) ({ [4 x ptr] }, ptr @_ZTVN4cvc58internal6theory5arith6linear7CutInfoE, i32 0, i32 0, i32 2), ptr %9, align 8, !tbaa !57
  %10 = getelementptr inbounds nuw %"class.cvc5::internal::theory::arith::linear::CutInfo", ptr %9, i32 0, i32 1
  %11 = load i32, ptr %6, align 4, !tbaa !65
  store i32 %11, ptr %10, align 8, !tbaa !67
  %12 = getelementptr inbounds nuw %"class.cvc5::internal::theory::arith::linear::CutInfo", ptr %9, i32 0, i32 2
  %13 = load i32, ptr %7, align 4, !tbaa !12
  store i32 %13, ptr %12, align 4, !tbaa !84
  %14 = getelementptr inbounds nuw %"class.cvc5::internal::theory::arith::linear::CutInfo", ptr %9, i32 0, i32 3
  %15 = load i32, ptr %8, align 4, !tbaa !12
  store i32 %15, ptr %14, align 8, !tbaa !85
  %16 = getelementptr inbounds nuw %"class.cvc5::internal::theory::arith::linear::CutInfo", ptr %9, i32 0, i32 4
  store i32 -1, ptr %16, align 4, !tbaa !86
  %17 = getelementptr inbounds nuw %"class.cvc5::internal::theory::arith::linear::CutInfo", ptr %9, i32 0, i32 5
  store double 0.000000e+00, ptr %17, align 8, !tbaa !87
  %18 = getelementptr inbounds nuw %"class.cvc5::internal::theory::arith::linear::CutInfo", ptr %9, i32 0, i32 6
  call void @_ZN4cvc58internal6theory5arith6linear12PrimitiveVecC1Ev(ptr noundef nonnull align 8 dereferenceable(24) %18)
  %19 = getelementptr inbounds nuw %"class.cvc5::internal::theory::arith::linear::CutInfo", ptr %9, i32 0, i32 7
  store i32 -1, ptr %19, align 8, !tbaa !88
  %20 = getelementptr inbounds nuw %"class.cvc5::internal::theory::arith::linear::CutInfo", ptr %9, i32 0, i32 8
  store i32 -1, ptr %20, align 4, !tbaa !89
  %21 = getelementptr inbounds nuw %"class.cvc5::internal::theory::arith::linear::CutInfo", ptr %9, i32 0, i32 9
  store i32 -1, ptr %21, align 8, !tbaa !90
  %22 = getelementptr inbounds nuw %"class.cvc5::internal::theory::arith::linear::CutInfo", ptr %9, i32 0, i32 10
  call void @_ZNSt10unique_ptrIN4cvc58internal6theory5arith6linear11DenseVectorESt14default_deleteIS5_EEC2IS7_vEEDn(ptr noundef nonnull align 8 dereferenceable(8) %22, ptr null) #3
  %23 = getelementptr inbounds nuw %"class.cvc5::internal::theory::arith::linear::CutInfo", ptr %9, i32 0, i32 11
  call void @_ZNSt10unique_ptrISt6vectorIPKN4cvc58internal6theory5arith6linear10ConstraintESaIS8_EESt14default_deleteISA_EEC2ISC_vEEDn(ptr noundef nonnull align 8 dereferenceable(8) %23, ptr null) #3
  ret void
}

; Function Attrs: mustprogress uwtable
define hidden void @_ZN4cvc58internal6theory5arith6linear13BranchCutInfoC2EiiNS0_4kind6Kind_tEd(ptr noundef nonnull align 8 dereferenceable(88) %0, i32 noundef %1, i32 noundef %2, i32 noundef %3, double noundef %4) unnamed_addr #5 align 2 personality ptr @__gxx_personality_v0 {
  %6 = alloca ptr, align 8
  %7 = alloca i32, align 4
  %8 = alloca i32, align 4
  %9 = alloca i32, align 4
  %10 = alloca double, align 8
  %11 = alloca ptr, align 8
  %12 = alloca i32, align 4
  store ptr %0, ptr %6, align 8, !tbaa !257
  store i32 %1, ptr %7, align 4, !tbaa !12
  store i32 %2, ptr %8, align 4, !tbaa !12
  store i32 %3, ptr %9, align 4, !tbaa !104
  store double %4, ptr %10, align 8, !tbaa !53
  %13 = load ptr, ptr %6, align 8
  %14 = load i32, ptr %7, align 4, !tbaa !12
  call void @_ZN4cvc58internal6theory5arith6linear7CutInfoC2ENS3_12CutInfoKlassEii(ptr noundef nonnull align 8 dereferenceable(88) %13, i32 noundef 2, i32 noundef %14, i32 noundef 0)
  store ptr getelementptr inbounds inrange(-16, 16) ({ [4 x ptr] }, ptr @_ZTVN4cvc58internal6theory5arith6linear13BranchCutInfoE, i32 0, i32 0, i32 2), ptr %13, align 8, !tbaa !57
  %15 = getelementptr inbounds nuw %"class.cvc5::internal::theory::arith::linear::CutInfo", ptr %13, i32 0, i32 6
  invoke void @_ZN4cvc58internal6theory5arith6linear12PrimitiveVec5setupEi(ptr noundef nonnull align 8 dereferenceable(24) %15, i32 noundef 1)
          to label %16 unwind label %30

16:                                               ; preds = %5
  %17 = load i32, ptr %8, align 4, !tbaa !12
  %18 = getelementptr inbounds nuw %"class.cvc5::internal::theory::arith::linear::CutInfo", ptr %13, i32 0, i32 6
  %19 = getelementptr inbounds nuw %"struct.cvc5::internal::theory::arith::linear::PrimitiveVec", ptr %18, i32 0, i32 1
  %20 = load ptr, ptr %19, align 8, !tbaa !255
  %21 = getelementptr inbounds i32, ptr %20, i64 1
  store i32 %17, ptr %21, align 4, !tbaa !12
  %22 = getelementptr inbounds nuw %"class.cvc5::internal::theory::arith::linear::CutInfo", ptr %13, i32 0, i32 6
  %23 = getelementptr inbounds nuw %"struct.cvc5::internal::theory::arith::linear::PrimitiveVec", ptr %22, i32 0, i32 2
  %24 = load ptr, ptr %23, align 8, !tbaa !254
  %25 = getelementptr inbounds double, ptr %24, i64 1
  store double 1.000000e+00, ptr %25, align 8, !tbaa !53
  %26 = load double, ptr %10, align 8, !tbaa !53
  %27 = getelementptr inbounds nuw %"class.cvc5::internal::theory::arith::linear::CutInfo", ptr %13, i32 0, i32 5
  store double %26, ptr %27, align 8, !tbaa !87
  %28 = load i32, ptr %9, align 4, !tbaa !104
  %29 = getelementptr inbounds nuw %"class.cvc5::internal::theory::arith::linear::CutInfo", ptr %13, i32 0, i32 4
  store i32 %28, ptr %29, align 4, !tbaa !86
  ret void

30:                                               ; preds = %5
  %31 = landingpad { ptr, i32 }
          cleanup
  %32 = extractvalue { ptr, i32 } %31, 0
  store ptr %32, ptr %11, align 8
  %33 = extractvalue { ptr, i32 } %31, 1
  store i32 %33, ptr %12, align 4
  call void @_ZN4cvc58internal6theory5arith6linear7CutInfoD2Ev(ptr noundef nonnull align 8 dereferenceable(88) %13) #3
  br label %34

34:                                               ; preds = %30
  %35 = load ptr, ptr %11, align 8
  %36 = load i32, ptr %12, align 4
  %37 = insertvalue { ptr, i32 } poison, ptr %35, 0
  %38 = insertvalue { ptr, i32 } %37, i32 %36, 1
  resume { ptr, i32 } %38
}