; Function Attrs: mustprogress uwtable
define hidden void @_ZN4cvc58internal6theory5arith6linear13BranchCutInfoC2EiiNS0_4kind6Kind_tEd(ptr noundef nonnull align 8 captures(none) dereferenceable(88) initializes((0, 36), (40, 68), (72, 88)) %0, i32 noundef %1, i32 noundef %2, i32 noundef %3, double noundef %4) unnamed_addr #13 align 2 personality ptr @__gxx_personality_v0 {
  %6 = getelementptr inbounds nuw i8, ptr %0, i64 8
  store i32 2, ptr %6, align 8, !tbaa !55
  %7 = getelementptr inbounds nuw i8, ptr %0, i64 12
  store i32 %1, ptr %7, align 4, !tbaa !73
  %8 = getelementptr inbounds nuw i8, ptr %0, i64 16
  store i32 0, ptr %8, align 8, !tbaa !74
  %9 = getelementptr inbounds nuw i8, ptr %0, i64 20
  store i32 -1, ptr %9, align 4, !tbaa !75
  %10 = getelementptr inbounds nuw i8, ptr %0, i64 24
  store double 0.000000e+00, ptr %10, align 8, !tbaa !76
  %11 = getelementptr inbounds nuw i8, ptr %0, i64 32
  %12 = getelementptr inbounds nuw i8, ptr %0, i64 40
  tail call void @llvm.memset.p0.i64(ptr noundef nonnull align 8 dereferenceable(16) %12, i8 0, i64 16, i1 false)
  %13 = getelementptr inbounds nuw i8, ptr %0, i64 56
  store i32 -1, ptr %13, align 8, !tbaa !77
  %14 = getelementptr inbounds nuw i8, ptr %0, i64 60
  store i32 -1, ptr %14, align 4, !tbaa !78
  %15 = getelementptr inbounds nuw i8, ptr %0, i64 64
  store i32 -1, ptr %15, align 8, !tbaa !79
  %16 = getelementptr inbounds nuw i8, ptr %0, i64 72
  tail call void @llvm.memset.p0.i64(ptr noundef nonnull align 8 dereferenceable(16) %16, i8 0, i64 16, i1 false)
  store ptr getelementptr inbounds nuw inrange(-16, 16) (i8, ptr @_ZTVN4cvc58internal6theory5arith6linear13BranchCutInfoE, i64 16), ptr %0, align 8, !tbaa !41
  store i32 1, ptr %11, align 8, !tbaa !36
  %17 = invoke noalias noundef nonnull dereferenceable(8) ptr @_Znam(i64 noundef 8) #29
          to label %.noexc unwind label %23

.noexc:                                           ; preds = %5
  store ptr %17, ptr %12, align 8, !tbaa !39
  %18 = invoke noalias noundef nonnull dereferenceable(16) ptr @_Znam(i64 noundef 16) #29
          to label %19 unwind label %23

19:                                               ; preds = %.noexc
  %20 = getelementptr inbounds nuw i8, ptr %0, i64 48
  store ptr %18, ptr %20, align 8, !tbaa !40
  %21 = getelementptr inbounds nuw i8, ptr %17, i64 4
  store i32 %2, ptr %21, align 4, !tbaa !13
  %22 = getelementptr inbounds nuw i8, ptr %18, i64 8
  store double 1.000000e+00, ptr %22, align 8, !tbaa !52
  store double %4, ptr %10, align 8, !tbaa !76
  store i32 %3, ptr %9, align 4, !tbaa !75
  ret void

23:                                               ; preds = %.noexc, %5
  %24 = landingpad { ptr, i32 }
          cleanup
  tail call void @_ZN4cvc58internal6theory5arith6linear7CutInfoD2Ev(ptr noundef nonnull align 8 dereferenceable(88) %0) #27
  resume { ptr, i32 } %24
}